; Function Attrs: mustprogress nounwind uwtable
define internal fastcc void @"_ZN3tev10ScopeGuardIZNS_8mainFuncERKNSt3__16vectorINS1_12basic_stringIcNS1_11char_traitsIcEENS1_9allocatorIcEEEENS6_IS8_EEEEE3$_2ED2Ev"(ptr nocapture noundef nonnull readonly align 8 dereferenceable(16) %0) unnamed_addr #1 align 2 personality ptr @__gxx_personality_v0 {
  invoke void @_ZN3tev15setShuttingDownEv()
          to label %.noexc unwind label %9

.noexc:                                           ; preds = %1
  %2 = load ptr, ptr %0, align 8
  %3 = load i64, ptr %2, align 8
  %.not.i = icmp eq i64 %3, 0
  br i1 %.not.i, label %.noexc1, label %4

4:                                                ; preds = %.noexc
  invoke void @_ZNSt3__16thread4joinEv(ptr noundef nonnull align 8 dereferenceable(8) %2)
          to label %.noexc1 unwind label %9

.noexc1:                                          ; preds = %4, %.noexc
  %5 = getelementptr inbounds i8, ptr %0, i64 8
  %6 = load ptr, ptr %5, align 8
  %7 = load i64, ptr %6, align 8
  %.not1.i = icmp eq i64 %7, 0
  br i1 %.not1.i, label %"_ZZN3tev8mainFuncERKNSt3__16vectorINS0_12basic_stringIcNS0_11char_traitsIcEENS0_9allocatorIcEEEENS5_IS7_EEEEENK3$_2clEv.exit", label %8

8:                                                ; preds = %.noexc1
  invoke void @_ZNSt3__16thread4joinEv(ptr noundef nonnull align 8 dereferenceable(8) %6)
          to label %"_ZZN3tev8mainFuncERKNSt3__16vectorINS0_12basic_stringIcNS0_11char_traitsIcEENS0_9allocatorIcEEEENS5_IS7_EEEEENK3$_2clEv.exit" unwind label %9

"_ZZN3tev8mainFuncERKNSt3__16vectorINS0_12basic_stringIcNS0_11char_traitsIcEENS0_9allocatorIcEEEENS5_IS7_EEEEENK3$_2clEv.exit": ; preds = %.noexc1, %8
  ret void

9:                                                ; preds = %8, %4, %1
  %10 = landingpad { ptr, i32 }
          catch ptr null
  %11 = extractvalue { ptr, i32 } %10, 0
  tail call void @__clang_call_terminate(ptr %11) #32
  unreachable
}